target datalayout = "e-m:e-p270:32:32-p271:32:32-p272:64:64-i64:64-i128:128-f80:128-n8:16:32:64-S128"
target triple = "x86_64-unknown-linux-gnu"

%"class.icu_75::UnicodeString" = type { %"class.icu_75::Replaceable", %"union.icu_75::UnicodeString::StackBufferOrFields" }
%"class.icu_75::Replaceable" = type { %"class.icu_75::UObject" }
%"class.icu_75::UObject" = type { ptr }
%"union.icu_75::UnicodeString::StackBufferOrFields" = type { %struct.anon.0, [32 x i8] }
%struct.anon.0 = type { i16, i32, i32, ptr }
%"class.icu_75::ConstChar16Ptr" = type { ptr }

@_ZL11gRawUNKNOWN = internal global [160 x i8] zeroinitializer, align 8
@_ZL7gRawGMT = internal global [160 x i8] zeroinitializer, align 8
@_ZL15UNKNOWN_ZONE_ID = internal constant [12 x i16] [i16 69, i16 116, i16 99, i16 47, i16 85, i16 110, i16 107, i16 110, i16 111, i16 119, i16 110, i16 0], align 16
@_ZL6GMT_ID = internal constant [4 x i16] [i16 71, i16 77, i16 84, i16 0], align 2
@_ZL23gStaticZonesInitialized = internal global i8 0, align 1

; Function Attrs: mustprogress nounwind uwtable
define linkonce_odr void @_ZN6icu_757UMemorydlEPvS1_(ptr noundef %0, ptr noundef %1) #2 comdat align 2 {
entry:
  %.addr = alloca ptr, align 8
  %.addr1 = alloca ptr, align 8
  store ptr %0, ptr %.addr, align 8
  store ptr %1, ptr %.addr1, align 8
  ret void
}

; Function Attrs: mustprogress nounwind uwtable
define linkonce_odr void @_ZN6icu_7514ConstChar16PtrD2Ev(ptr noundef nonnull align 8 dereferenceable(8) %this) unnamed_addr #2 comdat align 2 {
entry:
  %this.addr = alloca ptr, align 8
  store ptr %this, ptr %this.addr, align 8
  %this1 = load ptr, ptr %this.addr, align 8
  %p_ = getelementptr inbounds %"class.icu_75::ConstChar16Ptr", ptr %this1, i32 0, i32 0
  %0 = load ptr, ptr %p_, align 8
  call void asm sideeffect "", "rm,~{memory},~{dirflag},~{fpsr},~{flags}"(ptr %0) #11, !srcloc !4
  ret void
}

; Function Attrs: mustprogress nounwind uwtable
define linkonce_odr void @_ZN6icu_7514ConstChar16PtrC2EPKDs(ptr noundef nonnull align 8 dereferenceable(8) %this, ptr noundef %p) unnamed_addr #2 comdat align 2 {
entry:
  %this.addr = alloca ptr, align 8
  %p.addr = alloca ptr, align 8
  store ptr %this, ptr %this.addr, align 8
  store ptr %p, ptr %p.addr, align 8
  %this1 = load ptr, ptr %this.addr, align 8
  %p_ = getelementptr inbounds %"class.icu_75::ConstChar16Ptr", ptr %this1, i32 0, i32 0
  %0 = load ptr, ptr %p.addr, align 8
  store ptr %0, ptr %p_, align 8
  ret void
}

; Function Attrs: mustprogress nounwind uwtable
define linkonce_odr noundef ptr @_ZN6icu_757UMemorynwEmPv(i64 noundef %0, ptr noundef %ptr) #2 comdat align 2 {
entry:
  %.addr = alloca i64, align 8
  %ptr.addr = alloca ptr, align 8
  store i64 %0, ptr %.addr, align 8
  store ptr %ptr, ptr %ptr.addr, align 8
  %1 = load ptr, ptr %ptr.addr, align 8
  ret ptr %1
}

; Function Attrs: mustprogress uwtable
define internal void @_ZN6icu_7512_GLOBAL__N_119initStaticTimeZonesEv() #0 personality ptr @__gxx_personality_v0 {
entry:
  %cleanup.cond = alloca i1, align 1
  %ref.tmp = alloca %"class.icu_75::UnicodeString", align 8
  %agg.tmp = alloca %"class.icu_75::ConstChar16Ptr", align 8
  %exn.slot = alloca ptr, align 8
  %ehselector.slot = alloca i32, align 4
  %cleanup.cond1 = alloca i1, align 1
  %cleanup.cond4 = alloca i1, align 1
  %saved-rvalue = alloca ptr, align 8
  %cleanup.cond23 = alloca i1, align 1
  %ref.tmp24 = alloca %"class.icu_75::UnicodeString", align 8
  %agg.tmp25 = alloca %"class.icu_75::ConstChar16Ptr", align 8
  %cleanup.cond28 = alloca i1, align 1
  %cleanup.cond31 = alloca i1, align 1
  call void @ucln_i18n_registerCleanup_75(i32 noundef 19, ptr noundef @_ZL16timeZone_cleanupv)
  %call = call noundef ptr @_ZN6icu_757UMemorynwEmPv(i64 noundef 160, ptr noundef @_ZL7gRawGMT) #11
  %new.isnull = icmp eq ptr %call, null
  store i1 false, ptr %cleanup.cond, align 1
  store i1 false, ptr %cleanup.cond1, align 1
  store i1 false, ptr %cleanup.cond4, align 1
  br i1 %new.isnull, label %new.cont, label %new.notnull

new.notnull:                                      ; preds = %entry
  store i1 true, ptr %cleanup.cond, align 1
  invoke void @_ZN6icu_7514ConstChar16PtrC2EPKDs(ptr noundef nonnull align 8 dereferenceable(8) %agg.tmp, ptr noundef @_ZL6GMT_ID)
          to label %invoke.cont unwind label %lpad

invoke.cont:                                      ; preds = %new.notnull
  store i1 true, ptr %cleanup.cond1, align 1
  invoke void @_ZN6icu_7513UnicodeStringC1EaNS_14ConstChar16PtrEi(ptr noundef nonnull align 8 dereferenceable(64) %ref.tmp, i8 noundef signext 1, ptr noundef %agg.tmp, i32 noundef 3)
          to label %invoke.cont3 unwind label %lpad2

invoke.cont3:                                     ; preds = %invoke.cont
  store i1 true, ptr %cleanup.cond4, align 1
  invoke void @_ZN6icu_7514SimpleTimeZoneC1EiRKNS_13UnicodeStringE(ptr noundef nonnull align 8 dereferenceable(160) %call, i32 noundef 0, ptr noundef nonnull align 8 dereferenceable(64) %ref.tmp)
          to label %invoke.cont6 unwind label %lpad5

invoke.cont6:                                     ; preds = %invoke.cont3
  store i1 false, ptr %cleanup.cond, align 1
  br label %new.cont

new.cont:                                         ; preds = %invoke.cont6, %entry
  %cleanup.is_active = load i1, ptr %cleanup.cond4, align 1
  br i1 %cleanup.is_active, label %cleanup.action, label %cleanup.done

cleanup.action:                                   ; preds = %new.cont
  call void @_ZN6icu_7513UnicodeStringD1Ev(ptr noundef nonnull align 8 dereferenceable(64) %ref.tmp) #11
  br label %cleanup.done

cleanup.done:                                     ; preds = %cleanup.action, %new.cont
  %cleanup.is_active10 = load i1, ptr %cleanup.cond1, align 1
  br i1 %cleanup.is_active10, label %cleanup.action11, label %cleanup.done12

cleanup.action11:                                 ; preds = %cleanup.done
  call void @_ZN6icu_7514ConstChar16PtrD2Ev(ptr noundef nonnull align 8 dereferenceable(8) %agg.tmp) #11
  br label %cleanup.done12

cleanup.done12:                                   ; preds = %cleanup.action11, %cleanup.done
  %call20 = call noundef ptr @_ZN6icu_757UMemorynwEmPv(i64 noundef 160, ptr noundef @_ZL11gRawUNKNOWN) #11
  %new.isnull21 = icmp eq ptr %call20, null
  store i1 false, ptr %cleanup.cond23, align 1
  store i1 false, ptr %cleanup.cond28, align 1
  store i1 false, ptr %cleanup.cond31, align 1
  br i1 %new.isnull21, label %new.cont34, label %new.notnull22

new.notnull22:                                    ; preds = %cleanup.done12
  store ptr %call20, ptr %saved-rvalue, align 8
  store i1 true, ptr %cleanup.cond23, align 1
  invoke void @_ZN6icu_7514ConstChar16PtrC2EPKDs(ptr noundef nonnull align 8 dereferenceable(8) %agg.tmp25, ptr noundef @_ZL15UNKNOWN_ZONE_ID)
          to label %invoke.cont27 unwind label %lpad26

invoke.cont27:                                    ; preds = %new.notnull22
  store i1 true, ptr %cleanup.cond28, align 1
  invoke void @_ZN6icu_7513UnicodeStringC1EaNS_14ConstChar16PtrEi(ptr noundef nonnull align 8 dereferenceable(64) %ref.tmp24, i8 noundef signext 1, ptr noundef %agg.tmp25, i32 noundef 11)
          to label %invoke.cont30 unwind label %lpad29

invoke.cont30:                                    ; preds = %invoke.cont27
  store i1 true, ptr %cleanup.cond31, align 1
  invoke void @_ZN6icu_7514SimpleTimeZoneC1EiRKNS_13UnicodeStringE(ptr noundef nonnull align 8 dereferenceable(160) %call20, i32 noundef 0, ptr noundef nonnull align 8 dereferenceable(64) %ref.tmp24)
          to label %invoke.cont33 unwind label %lpad32

invoke.cont33:                                    ; preds = %invoke.cont30
  store i1 false, ptr %cleanup.cond23, align 1
  br label %new.cont34

new.cont34:                                       ; preds = %invoke.cont33, %cleanup.done12
  %cleanup.is_active35 = load i1, ptr %cleanup.cond31, align 1
  br i1 %cleanup.is_active35, label %cleanup.action36, label %cleanup.done37

cleanup.action36:                                 ; preds = %new.cont34
  call void @_ZN6icu_7513UnicodeStringD1Ev(ptr noundef nonnull align 8 dereferenceable(64) %ref.tmp24) #11
  br label %cleanup.done37

cleanup.done37:                                   ; preds = %cleanup.action36, %new.cont34
  %cleanup.is_active42 = load i1, ptr %cleanup.cond28, align 1
  br i1 %cleanup.is_active42, label %cleanup.action43, label %cleanup.done44

cleanup.action43:                                 ; preds = %cleanup.done37
  call void @_ZN6icu_7514ConstChar16PtrD2Ev(ptr noundef nonnull align 8 dereferenceable(8) %agg.tmp25) #11
  br label %cleanup.done44

cleanup.done44:                                   ; preds = %cleanup.action43, %cleanup.done37
  store i8 1, ptr @_ZL23gStaticZonesInitialized, align 1
  ret void

lpad:                                             ; preds = %new.notnull
  %0 = landingpad { ptr, i32 }
          cleanup
  %1 = extractvalue { ptr, i32 } %0, 0
  store ptr %1, ptr %exn.slot, align 8
  %2 = extractvalue { ptr, i32 } %0, 1
  store i32 %2, ptr %ehselector.slot, align 4
  br label %ehcleanup16

lpad2:                                            ; preds = %invoke.cont
  %3 = landingpad { ptr, i32 }
          cleanup
  %4 = extractvalue { ptr, i32 } %3, 0
  store ptr %4, ptr %exn.slot, align 8
  %5 = extractvalue { ptr, i32 } %3, 1
  store i32 %5, ptr %ehselector.slot, align 4
  br label %ehcleanup

lpad5:                                            ; preds = %invoke.cont3
  %6 = landingpad { ptr, i32 }
          cleanup
  %7 = extractvalue { ptr, i32 } %6, 0
  store ptr %7, ptr %exn.slot, align 8
  %8 = extractvalue { ptr, i32 } %6, 1
  store i32 %8, ptr %ehselector.slot, align 4
  %cleanup.is_active7 = load i1, ptr %cleanup.cond4, align 1
  br i1 %cleanup.is_active7, label %cleanup.action8, label %cleanup.done9

cleanup.action8:                                  ; preds = %lpad5
  call void @_ZN6icu_7513UnicodeStringD1Ev(ptr noundef nonnull align 8 dereferenceable(64) %ref.tmp) #11
  br label %cleanup.done9

cleanup.done9:                                    ; preds = %cleanup.action8, %lpad5
  br label %ehcleanup

ehcleanup:                                        ; preds = %cleanup.done9, %lpad2
  %cleanup.is_active13 = load i1, ptr %cleanup.cond1, align 1
  br i1 %cleanup.is_active13, label %cleanup.action14, label %cleanup.done15

cleanup.action14:                                 ; preds = %ehcleanup
  call void @_ZN6icu_7514ConstChar16PtrD2Ev(ptr noundef nonnull align 8 dereferenceable(8) %agg.tmp) #11
  br label %cleanup.done15

cleanup.done15:                                   ; preds = %cleanup.action14, %ehcleanup
  br label %ehcleanup16

ehcleanup16:                                      ; preds = %cleanup.done15, %lpad
  %cleanup.is_active17 = load i1, ptr %cleanup.cond, align 1
  br i1 %cleanup.is_active17, label %cleanup.action18, label %cleanup.done19

cleanup.action18:                                 ; preds = %ehcleanup16
  call void @_ZN6icu_757UMemorydlEPvS1_(ptr noundef %call, ptr noundef @_ZL7gRawGMT) #11
  br label %cleanup.done19

cleanup.done19:                                   ; preds = %cleanup.action18, %ehcleanup16
  br label %eh.resume

lpad26:                                           ; preds = %new.notnull22
  %9 = landingpad { ptr, i32 }
          cleanup
  %10 = extractvalue { ptr, i32 } %9, 0
  store ptr %10, ptr %exn.slot, align 8
  %11 = extractvalue { ptr, i32 } %9, 1
  store i32 %11, ptr %ehselector.slot, align 4
  br label %ehcleanup49

lpad29:                                           ; preds = %invoke.cont27
  %12 = landingpad { ptr, i32 }
          cleanup
  %13 = extractvalue { ptr, i32 } %12, 0
  store ptr %13, ptr %exn.slot, align 8
  %14 = extractvalue { ptr, i32 } %12, 1
  store i32 %14, ptr %ehselector.slot, align 4
  br label %ehcleanup45

lpad32:                                           ; preds = %invoke.cont30
  %15 = landingpad { ptr, i32 }
          cleanup
  %16 = extractvalue { ptr, i32 } %15, 0
  store ptr %16, ptr %exn.slot, align 8
  %17 = extractvalue { ptr, i32 } %15, 1
  store i32 %17, ptr %ehselector.slot, align 4
  %cleanup.is_active39 = load i1, ptr %cleanup.cond31, align 1
  br i1 %cleanup.is_active39, label %cleanup.action40, label %cleanup.done41

cleanup.action40:                                 ; preds = %lpad32
  call void @_ZN6icu_7513UnicodeStringD1Ev(ptr noundef nonnull align 8 dereferenceable(64) %ref.tmp24) #11
  br label %cleanup.done41

cleanup.done41:                                   ; preds = %cleanup.action40, %lpad32
  br label %ehcleanup45

ehcleanup45:                                      ; preds = %cleanup.done41, %lpad29
  %cleanup.is_active46 = load i1, ptr %cleanup.cond28, align 1
  br i1 %cleanup.is_active46, label %cleanup.action47, label %cleanup.done48

cleanup.action47:                                 ; preds = %ehcleanup45
  call void @_ZN6icu_7514ConstChar16PtrD2Ev(ptr noundef nonnull align 8 dereferenceable(8) %agg.tmp25) #11
  br label %cleanup.done48

cleanup.done48:                                   ; preds = %cleanup.action47, %ehcleanup45
  br label %ehcleanup49

ehcleanup49:                                      ; preds = %cleanup.done48, %lpad26
  %cleanup.is_active50 = load i1, ptr %cleanup.cond23, align 1
  br i1 %cleanup.is_active50, label %cleanup.action51, label %cleanup.done52

cleanup.action51:                                 ; preds = %ehcleanup49
  %18 = load ptr, ptr %saved-rvalue, align 8
  call void @_ZN6icu_757UMemorydlEPvS1_(ptr noundef %18, ptr noundef @_ZL11gRawUNKNOWN) #11
  br label %cleanup.done52

cleanup.done52:                                   ; preds = %cleanup.action51, %ehcleanup49
  br label %eh.resume

eh.resume:                                        ; preds = %cleanup.done52, %cleanup.done19
  %exn = load ptr, ptr %exn.slot, align 8
  %sel = load i32, ptr %ehselector.slot, align 4
  %lpad.val = insertvalue { ptr, i32 } poison, ptr %exn, 0
  %lpad.val53 = insertvalue { ptr, i32 } %lpad.val, i32 %sel, 1
  resume { ptr, i32 } %lpad.val53
}