; Function Attrs: mustprogress uwtable
define internal fastcc void @_ZN6icu_7512_GLOBAL__N_119initStaticTimeZonesEv() unnamed_addr #0 personality ptr @__gxx_personality_v0 {
new.notnull:
  %ref.tmp = alloca %"class.icu_75::UnicodeString", align 8
  %agg.tmp = alloca %"class.icu_75::ConstChar16Ptr", align 8
  %ref.tmp24 = alloca %"class.icu_75::UnicodeString", align 8
  %agg.tmp25 = alloca %"class.icu_75::ConstChar16Ptr", align 8
  tail call void @ucln_i18n_registerCleanup_75(i32 noundef 19, ptr noundef nonnull @_ZL16timeZone_cleanupv)
  store ptr @_ZL6GMT_ID, ptr %agg.tmp, align 8
  invoke void @_ZN6icu_7513UnicodeStringC1EaNS_14ConstChar16PtrEi(ptr noundef nonnull align 8 dereferenceable(64) %ref.tmp, i8 noundef signext 1, ptr noundef nonnull %agg.tmp, i32 noundef 3)
          to label %invoke.cont3 unwind label %lpad2

invoke.cont3:                                     ; preds = %new.notnull
  invoke void @_ZN6icu_7514SimpleTimeZoneC1EiRKNS_13UnicodeStringE(ptr noundef nonnull align 8 dereferenceable(160) @_ZL7gRawGMT, i32 noundef 0, ptr noundef nonnull align 8 dereferenceable(64) %ref.tmp)
          to label %new.notnull22 unwind label %lpad5

new.notnull22:                                    ; preds = %invoke.cont3
  call void @_ZN6icu_7513UnicodeStringD1Ev(ptr noundef nonnull align 8 dereferenceable(64) %ref.tmp) #18
  %0 = load ptr, ptr %agg.tmp, align 8
  call void asm sideeffect "", "rm,~{memory},~{dirflag},~{fpsr},~{flags}"(ptr %0) #18, !srcloc !4
  store ptr @_ZL15UNKNOWN_ZONE_ID, ptr %agg.tmp25, align 8
  invoke void @_ZN6icu_7513UnicodeStringC1EaNS_14ConstChar16PtrEi(ptr noundef nonnull align 8 dereferenceable(64) %ref.tmp24, i8 noundef signext 1, ptr noundef nonnull %agg.tmp25, i32 noundef 11)
          to label %invoke.cont30 unwind label %lpad29

invoke.cont30:                                    ; preds = %new.notnull22
  invoke void @_ZN6icu_7514SimpleTimeZoneC1EiRKNS_13UnicodeStringE(ptr noundef nonnull align 8 dereferenceable(160) @_ZL11gRawUNKNOWN, i32 noundef 0, ptr noundef nonnull align 8 dereferenceable(64) %ref.tmp24)
          to label %cleanup.done44 unwind label %lpad32

cleanup.done44:                                   ; preds = %invoke.cont30
  call void @_ZN6icu_7513UnicodeStringD1Ev(ptr noundef nonnull align 8 dereferenceable(64) %ref.tmp24) #18
  %1 = load ptr, ptr %agg.tmp25, align 8
  call void asm sideeffect "", "rm,~{memory},~{dirflag},~{fpsr},~{flags}"(ptr %1) #18, !srcloc !4
  store i1 true, ptr @_ZL23gStaticZonesInitialized, align 1
  ret void

lpad2:                                            ; preds = %new.notnull
  %2 = landingpad { ptr, i32 }
          cleanup
  br label %cleanup.action14

lpad5:                                            ; preds = %invoke.cont3
  %3 = landingpad { ptr, i32 }
          cleanup
  call void @_ZN6icu_7513UnicodeStringD1Ev(ptr noundef nonnull align 8 dereferenceable(64) %ref.tmp) #18
  br label %cleanup.action14

cleanup.action14:                                 ; preds = %lpad2, %lpad5
  %.pn = phi { ptr, i32 } [ %3, %lpad5 ], [ %2, %lpad2 ]
  %4 = load ptr, ptr %agg.tmp, align 8
  call void asm sideeffect "", "rm,~{memory},~{dirflag},~{fpsr},~{flags}"(ptr %4) #18, !srcloc !4
  br label %eh.resume

lpad29:                                           ; preds = %new.notnull22
  %5 = landingpad { ptr, i32 }
          cleanup
  br label %cleanup.action47

lpad32:                                           ; preds = %invoke.cont30
  %6 = landingpad { ptr, i32 }
          cleanup
  call void @_ZN6icu_7513UnicodeStringD1Ev(ptr noundef nonnull align 8 dereferenceable(64) %ref.tmp24) #18
  br label %cleanup.action47

cleanup.action47:                                 ; preds = %lpad29, %lpad32
  %.pn2 = phi { ptr, i32 } [ %6, %lpad32 ], [ %5, %lpad29 ]
  %7 = load ptr, ptr %agg.tmp25, align 8
  call void asm sideeffect "", "rm,~{memory},~{dirflag},~{fpsr},~{flags}"(ptr %7) #18, !srcloc !4
  br label %eh.resume

eh.resume:                                        ; preds = %cleanup.action47, %cleanup.action14
  %.pn2.pn = phi { ptr, i32 } [ %.pn2, %cleanup.action47 ], [ %.pn, %cleanup.action14 ]
  resume { ptr, i32 } %.pn2.pn
}